; Function Attrs: mustprogress uwtable
define noundef ptr @_ZN9FaceGroup2FpEv(ptr nocapture noundef nonnull readonly align 8 dereferenceable(192) %0) local_unnamed_addr #9 align 2 {
  %2 = getelementptr inbounds i8, ptr %0, i64 16
  %3 = load ptr, ptr %2, align 8
  %4 = getelementptr inbounds i8, ptr %0, i64 24
  %5 = load ptr, ptr %4, align 8
  %6 = icmp eq ptr %3, %5
  br i1 %6, label %7, label %8

7:                                                ; preds = %1
  tail call void @_Z11ensure_failPKcS0_j(ptr noundef nonnull @.str.18, ptr noundef nonnull @.str.13, i32 noundef 238) #33
  unreachable

8:                                                ; preds = %1
  %9 = load ptr, ptr %3, align 8
  ret ptr %9
}